TN:
SF:/home/vedant/Desktop/ros2_ws/src/spectral_fubar/include/spectral_fubar/HuskyInspector.hpp
FN:31,_ZN5husky5PointC2Ev
FN:50,_ZN5husky9Inspector16isObjectDetectedEv
FN:54,_ZN5husky9Inspector7isRightEv
FNDA:3,_ZN5husky5PointC2Ev
FNDA:1,_ZN5husky9Inspector7isRightEv
FNDA:1,_ZN5husky9Inspector16isObjectDetectedEv
FNF:3
FNH:3
DA:31,3
DA:32,3
DA:33,3
DA:34,3
DA:35,3
DA:50,1
DA:51,1
DA:54,1
DA:55,1
LF:9
LH:9
end_of_record
TN:
SF:/home/vedant/Desktop/ros2_ws/src/spectral_fubar/libs/HuskyInspector.cpp
FN:20,_ZN5husky9InspectorC2Ev
FN:44,_ZN5husky9Inspector15motionProcessorEv
FN:53,_ZN5husky9Inspector17updateMotionStateEv
FN:86,_ZN5husky9Inspector15cmdVelPublisherEv
FN:89,_ZN5husky9Inspector14imageProcessorEb
FN:145,_ZN5husky9Inspector15imageSubscriberEN11sensor_msgs3msg6Image_ISaIvEEE
FN:149,_ZN5husky9Inspector19modelStatesCallbackESt10shared_ptrIN11gazebo_msgs3msg12ModelStates_ISaIvEEEE
FN:163,_ZN5husky9Inspector7forwardEv
FN:171,_ZN5husky9Inspector4turnEb
FN:179,_ZN5husky9Inspector4stopEv
FNDA:0,_ZN5husky9Inspector14imageProcessorEb
FNDA:3,_ZN5husky9InspectorC2Ev
FNDA:36,_ZN5husky9Inspector4stopEv
FNDA:177,_ZN5husky9Inspector15cmdVelPublisherEv
FNDA:0,_ZN5husky9Inspector7forwardEv
FNDA:36,_ZN5husky9Inspector17updateMotionStateEv
FNDA:0,_ZN5husky9Inspector19modelStatesCallbackESt10shared_ptrIN11gazebo_msgs3msg12ModelStates_ISaIvEEEE
FNDA:36,_ZN5husky9Inspector15motionProcessorEv
FNDA:0,_ZN5husky9Inspector4turnEb
FNDA:0,_ZN5husky9Inspector15imageSubscriberEN11sensor_msgs3msg6Image_ISaIvEEE
FNF:10
FNH:5
DA:20,3
DA:21,3
DA:23,3
DA:25,3
DA:28,9
DA:29,9
DA:31,12
DA:33,9
DA:35,12
DA:37,9
DA:40,9
DA:41,9
DA:42,3
DA:43,3
DA:44,36
DA:46,36
DA:47,0
DA:48,0
DA:51,36
DA:52,36
DA:53,36
DA:54,36
DA:55,0
DA:56,0
DA:57,0
DA:58,0
DA:59,0
DA:60,0
DA:61,0
DA:63,0
DA:64,0
DA:67,0
DA:69,0
DA:70,0
DA:71,0
DA:72,0
DA:73,0
DA:74,0
DA:75,0
DA:76,0
DA:78,0
DA:80,0
DA:81,36
DA:82,36
DA:83,36
DA:85,36
DA:86,177
DA:87,177
DA:88,177
DA:89,0
DA:90,0
DA:91,0
DA:92,0
DA:93,0
DA:94,0
DA:99,0
DA:100,0
DA:101,0
DA:102,0
DA:103,0
DA:104,0
DA:106,0
DA:107,0
DA:109,0
DA:111,0
DA:112,0
DA:113,0
DA:114,0
DA:115,0
DA:118,0
DA:119,0
DA:120,0
DA:121,0
DA:122,0
DA:123,0
DA:127,0
DA:130,0
DA:131,0
DA:132,0
DA:133,0
DA:135,0
DA:137,0
DA:140,0
DA:141,0
DA:144,0
DA:145,0
DA:146,0
DA:147,0
DA:148,0
DA:149,0
DA:151,0
DA:152,0
DA:153,0
DA:154,0
DA:157,0
DA:160,0
DA:163,0
DA:164,0
DA:166,0
DA:167,0
DA:168,0
DA:169,0
DA:171,0
DA:172,0
DA:173,0
DA:174,0
DA:175,0
DA:176,0
DA:177,0
DA:179,36
DA:180,36
DA:181,36
DA:182,36
DA:183,36
LF:114
LH:32
end_of_record
TN:
SF:/home/vedant/Desktop/ros2_ws/src/spectral_fubar/src/main.cpp
FN:13,main
FNDA:1,main
FNF:1
FNH:1
DA:13,1
DA:14,1
DA:15,1
DA:16,1
DA:17,1
LF:5
LH:5
end_of_record
TN:
SF:/home/vedant/Desktop/ros2_ws/src/spectral_fubar/test/integration_test.cpp
FN:17,_ZN19TaskPlanningFixtureC2Ev
FN:21,_ZN19TaskPlanningFixture5SetUpEv
FN:36,_ZN19TaskPlanningFixture8TearDownEv
FN:51,_ZN19TaskPlanningFixture12StartROSExecEPKcS1_S1_
FN:82,_ZN19TaskPlanningFixture11StopROSExecEv
FN:92,_ZN39TaskPlanningFixture_TrueIsTrueTest_TestC2Ev
FN:92,_ZN39TaskPlanningFixture_TrueIsTrueTest_Test8TestBodyEv
FN:103,_ZZN39TaskPlanningFixture_TrueIsTrueTest_Test8TestBodyEvENKUlRKN13geometry_msgs3msg6Twist_ISaIvEEEE_clES6_
FN:127,main
FNDA:1,main
FNDA:1,_ZN39TaskPlanningFixture_TrueIsTrueTest_TestC2Ev
FNDA:1,_ZN19TaskPlanningFixture12StartROSExecEPKcS1_S1_
FNDA:2,_ZN19TaskPlanningFixture11StopROSExecEv
FNDA:1,_ZN19TaskPlanningFixture5SetUpEv
FNDA:1,_ZN19TaskPlanningFixtureC2Ev
FNDA:1,_ZN19TaskPlanningFixture8TearDownEv
FNDA:1,_ZN39TaskPlanningFixture_TrueIsTrueTest_Test8TestBodyEv
FNDA:1,_ZZN39TaskPlanningFixture_TrueIsTrueTest_Test8TestBodyEvENKUlRKN13geometry_msgs3msg6Twist_ISaIvEEEE_clES6_
FNF:9
FNH:9
DA:17,1
DA:18,1
DA:19,1
DA:21,1
DA:23,1
DA:30,1
DA:31,1
DA:33,1
DA:36,1
DA:38,1
DA:41,1
DA:42,1
DA:44,1
DA:51,1
DA:55,1
DA:57,1
DA:59,1
DA:62,1
DA:65,1
DA:68,1
DA:69,1
DA:73,1
DA:74,1
DA:75,2
DA:76,1
DA:77,1
DA:79,1
DA:82,2
DA:84,2
DA:85,1
DA:87,1
DA:88,1
DA:92,2
DA:93,1
DA:94,1
DA:99,1
DA:100,1
DA:103,1
DA:104,1
DA:105,1
DA:106,1
DA:107,3
DA:114,1
DA:116,1
DA:117,1
DA:118,2
DA:119,3
DA:120,2
DA:121,2
DA:122,2
DA:124,1
DA:125,1
DA:127,1
DA:128,1
DA:129,1
DA:130,1
DA:131,1
DA:132,1
DA:133,1
LF:59
LH:59
end_of_record
TN:
SF:/home/vedant/Desktop/ros2_ws/src/spectral_fubar/test/unit_test.cpp
FN:7,_ZN26test_1_is_right_check_TestC2Ev
FN:7,_ZN26test_1_is_right_check_Test8TestBodyEv
FN:11,_ZN28test_2_isObjectDetected_Test8TestBodyEv
FN:11,_ZN28test_2_isObjectDetected_TestC2Ev
FN:16,main
FNDA:1,_ZN28test_2_isObjectDetected_TestC2Ev
FNDA:1,_ZN26test_1_is_right_check_Test8TestBodyEv
FNDA:1,_ZN26test_1_is_right_check_TestC2Ev
FNDA:1,main
FNDA:1,_ZN28test_2_isObjectDetected_Test8TestBodyEv
FNF:5
FNH:5
DA:7,2
DA:8,1
DA:9,1
DA:10,1
DA:11,2
DA:12,1
DA:13,1
DA:14,1
DA:16,1
DA:17,1
DA:18,1
DA:19,1
DA:20,1
DA:21,1
LF:14
LH:14
end_of_record
